EXPORTS 
	??_R0?AV?$_Iosb@H@std@@@8 	 DATA
	??_R0?AV?$basic_ios@DU?$char_traits@D@std@@@std@@@8 	 DATA
	??_R0?AV?$basic_iostream@DU?$char_traits@D@std@@@std@@@8 	 DATA
	??_R0?AV?$basic_istream@DU?$char_traits@D@std@@@std@@@8 	 DATA
	??_R0?AV?$basic_ostream@DU?$char_traits@D@std@@@std@@@8 	 DATA
	??_R0?AV?$basic_streambuf@DU?$char_traits@D@std@@@std@@@8 	 DATA
	??_R0?AV?$basic_stringbuf@DU?$char_traits@D@std@@V?$allocator@D@2@@std@@@8 	 DATA
	??_R0?AV?$basic_stringstream@DU?$char_traits@D@std@@V?$allocator@D@2@@std@@@8 	 DATA
	??_R0?AVbad_alloc@std@@@8 	 DATA
	??_R0?AVbad_array_new_length@std@@@8 	 DATA
	??_R0?AVexception@std@@@8 	 DATA
	??_R0?AVios_base@std@@@8 	 DATA
	?FRAGMENT_SHADER@@3PEBDEB 	 DATA
	?ORIGINAL_FORWARD@CameraGLBodyTracking@@2VTranslation@sl@@B 	 DATA
	?ORIGINAL_FORWARD@CameraGLPositionalTracking@@0VTranslation@sl@@B 	 DATA
	?ORIGINAL_RIGHT@CameraGLBodyTracking@@2VTranslation@sl@@B 	 DATA
	?ORIGINAL_RIGHT@CameraGLPositionalTracking@@0VTranslation@sl@@B 	 DATA
	?ORIGINAL_UP@CameraGLBodyTracking@@2VTranslation@sl@@B 	 DATA
	?ORIGINAL_UP@CameraGLPositionalTracking@@0VTranslation@sl@@B 	 DATA
	?SK_FRAGMENT_SHADER@@3PEBDEB 	 DATA
	?SK_VERTEX_SHADER@@3PEBDEB 	 DATA
	?VERTEX_SHADER@@3PEBDEB 	 DATA
	?_OptionsStorage@?1??__local_stdio_scanf_options@@9@4_KA 	 DATA
	?configFilePath@@3PEBDEB 	 DATA
	?currentInstance_@@3PEAVGLViewerBodyTracking@@EA 	 DATA
	?currentInstance_@@3PEAVGLViewerPositionalTracking@@EA 	 DATA
	?nothing@@3PEAPEADEA 	 DATA
	?str@@3PAPEADA 	 DATA
	??$?0PEAD$0A@@?$basic_string@DU?$char_traits@D@std@@V?$allocator@D@2@@std@@QEAA@PEAD0AEBV?$allocator@D@1@@Z
	??$?6DU?$char_traits@D@std@@V?$allocator@D@1@@std@@YAAEAV?$basic_ostream@DU?$char_traits@D@std@@@0@AEAV10@AEBV?$basic_string@DU?$char_traits@D@std@@V?$allocator@D@2@@0@@Z
	??$?6M@sl@@YAAEAV?$basic_ostream@DU?$char_traits@D@std@@@std@@AEAV12@AEBV?$Vector3@M@0@@Z
	??$?6U?$char_traits@D@std@@@std@@YAAEAV?$basic_ostream@DU?$char_traits@D@std@@@0@AEAV10@PEBD@Z
	??$?6U?$char_traits@D@std@@@std@@YAAEAV?$basic_ostream@DU?$char_traits@D@std@@@0@AEAV10@PEBE@Z
	??$?BH@?$Point_@M@cv@@QEBA?AV?$Point_@H@1@XZ
	??$_Allocate_manually_vector_aligned@U_Default_allocate_traits@std@@@std@@YAPEAX_K@Z
	??$_Assign_counted_range@PEAI@?$vector@IV?$allocator@I@std@@@std@@AEAAXPEAI_K@Z
	??$_Assign_counted_range@PEAM@?$vector@MV?$allocator@M@std@@@std@@AEAAXPEAM_K@Z
	??$_Clamped_rel_time_ms_count@V?$duration@_JU?$ratio@$00$0DLJKMKAA@@std@@@chrono@std@@@std@@YA?AU_Clamped_rel_time_ms_count_result@0@AEBV?$duration@_JU?$ratio@$00$0DLJKMKAA@@std@@@chrono@0@@Z
	??$_Construct@$00PEBD@?$basic_string@DU?$char_traits@D@std@@V?$allocator@D@2@@std@@AEAAXQEBD_K@Z
	??$_Copy_memmove@PEAIPEAI@std@@YAPEAIPEAI00@Z
	??$_Copy_memmove@PEAMPEAM@std@@YAPEAMPEAM00@Z
	??$_Copy_memmove@PEBHPEAH@std@@YAPEAHPEBH0PEAH@Z
	??$_Copy_memmove@PEBU?$pair@W4BODY_18_PARTS@sl@@W412@@std@@PEAU12@@std@@YAPEAU?$pair@W4BODY_18_PARTS@sl@@W412@@0@PEBU10@0PEAU10@@Z
	??$_Copy_memmove@PEBU?$pair@W4BODY_34_PARTS@sl@@W412@@std@@PEAU12@@std@@YAPEAU?$pair@W4BODY_34_PARTS@sl@@W412@@0@PEBU10@0PEAU10@@Z
	??$_Copy_memmove@PEBU?$pair@W4BODY_38_PARTS@sl@@W412@@std@@PEAU12@@std@@YAPEAU?$pair@W4BODY_38_PARTS@sl@@W412@@0@PEBU10@0PEAU10@@Z
	??$_Copy_memmove_n@PEAIPEAI@std@@YAPEAIPEAI_K0@Z
	??$_Copy_memmove_n@PEAMPEAM@std@@YAPEAMPEAM_K0@Z
	??$_Destroy_range@V?$allocator@V?$vector@V?$Vector3@M@sl@@V?$allocator@V?$Vector3@M@sl@@@std@@@std@@@std@@@std@@YAXPEAV?$vector@V?$Vector3@M@sl@@V?$allocator@V?$Vector3@M@sl@@@std@@@0@QEAV10@AEAV?$allocator@V?$vector@V?$Vector3@M@sl@@V?$allocator@V?$Vector3@M@sl@@@std@@@std@@@0@@Z
	??$_Emplace_reallocate@$$V@?$vector@UModelPart@@V?$allocator@UModelPart@@@std@@@std@@AEAAPEAUModelPart@@QEAU2@@Z
	??$_Emplace_reallocate@AEBM@?$vector@MV?$allocator@M@std@@@std@@AEAAPEAMQEAMAEBM@Z
	??$_Emplace_reallocate@AEBV?$Vector3@M@sl@@@?$vector@V?$Vector3@M@sl@@V?$allocator@V?$Vector3@M@sl@@@std@@@std@@AEAAPEAV?$Vector3@M@sl@@QEAV23@AEBV23@@Z
	??$_Emplace_reallocate@AEBV?$vector@V?$Vector3@M@sl@@V?$allocator@V?$Vector3@M@sl@@@std@@@std@@@?$vector@V?$vector@V?$Vector3@M@sl@@V?$allocator@V?$Vector3@M@sl@@@std@@@std@@V?$allocator@V?$vector@V?$Vector3@M@sl@@V?$allocator@V?$Vector3@M@sl@@@std@@@std@@@2@@std@@AEAAPEAV?$vector@V?$Vector3@M@sl@@V?$allocator@V?$Vector3@M@sl@@@std@@@1@QEAV21@AEBV21@@Z
	??$_Emplace_reallocate@I@?$vector@IV?$allocator@I@std@@@std@@AEAAPEAIQEAI$$QEAI@Z
	??$_Emplace_reallocate@M@?$vector@MV?$allocator@M@std@@@std@@AEAAPEAMQEAM$$QEAM@Z
	??$_Emplace_reallocate@V?$Vector3@M@sl@@@?$vector@V?$Vector3@M@sl@@V?$allocator@V?$Vector3@M@sl@@@std@@@std@@AEAAPEAV?$Vector3@M@sl@@QEAV23@$$QEAV23@@Z
	??$_Fnv1a_append_value@W4MODULE@sl@@@std@@YA_K_KAEBW4MODULE@sl@@@Z
	??$_Getvals@_W@?$time_get@DV?$istreambuf_iterator@DU?$char_traits@D@std@@@std@@@std@@IEAAX_WAEBV_Locinfo@1@@Z
	??$_Getvals@_W@?$time_get@_WV?$istreambuf_iterator@_WU?$char_traits@_W@std@@@std@@@std@@IEAAX_WAEBV_Locinfo@1@@Z
	??$_Hash_representation@W4MODULE@sl@@@std@@YA_KAEBW4MODULE@sl@@@Z
	??$_Insert_range_unchecked@PEBW4MODULE@sl@@PEBW412@@?$_Hash@V?$_Uset_traits@W4MODULE@sl@@V?$_Uhash_compare@W4MODULE@sl@@U?$hash@W4MODULE@sl@@@std@@U?$equal_to@W4MODULE@sl@@@4@@std@@V?$allocator@W4MODULE@sl@@@4@$0A@@std@@@std@@IEAAXPEBW4MODULE@sl@@QEBW423@@Z
	??$_Insert_string@DU?$char_traits@D@std@@_K@std@@YAAEAV?$basic_ostream@DU?$char_traits@D@std@@@0@AEAV10@QEBD_K@Z
	??$_Maklocstr@D@std@@YAPEADPEBDPEADAEBU_Cvtvec@@@Z
	??$_Reallocate_grow_by@V<lambda_65e615be2a453ca0576c979606f46740>@@PEBD_K@?$basic_string@DU?$char_traits@D@std@@V?$allocator@D@2@@std@@AEAAAEAV01@_KV<lambda_65e615be2a453ca0576c979606f46740>@@PEBD_K@Z
	??$_Reallocate_grow_by@V<lambda_f3a66ab6a0570788f31503db83886f49>@@_KPEBD_K@?$basic_string@DU?$char_traits@D@std@@V?$allocator@D@2@@std@@AEAAAEAV01@_KV<lambda_f3a66ab6a0570788f31503db83886f49>@@_KPEBD2@Z
	??$_To_absolute_time@_JU?$ratio@$00$0DOI@@std@@@std@@YA?A_PAEBV?$duration@_JU?$ratio@$00$0DOI@@std@@@chrono@0@@Z
	??$_UIntegral_to_buff@DI@std@@YAPEADPEADI@Z
	??$_UIntegral_to_string@DI@std@@YA?AV?$basic_string@DU?$char_traits@D@std@@V?$allocator@D@2@@0@I@Z
	??$_Uninitialized_move@PEAV?$vector@V?$Vector3@M@sl@@V?$allocator@V?$Vector3@M@sl@@@std@@@std@@V?$allocator@V?$vector@V?$Vector3@M@sl@@V?$allocator@V?$Vector3@M@sl@@@std@@@std@@@2@@std@@YAPEAV?$vector@V?$Vector3@M@sl@@V?$allocator@V?$Vector3@M@sl@@@std@@@0@QEAV10@0PEAV10@AEAV?$allocator@V?$vector@V?$Vector3@M@sl@@V?$allocator@V?$Vector3@M@sl@@@std@@@std@@@0@@Z
	??$createSKPrimitive@W4BODY_18_PARTS@sl@@@@YAXAEAVBodyData@sl@@AEBV?$vector@U?$pair@W4BODY_18_PARTS@sl@@W412@@std@@V?$allocator@U?$pair@W4BODY_18_PARTS@sl@@W412@@std@@@2@@std@@AEAVSimple3DObjectBodyTracking@@V?$Vector4@M@1@@Z
	??$createSKPrimitive@W4BODY_18_PARTS@sl@@@@YAXAEAVBodyData@sl@@AEBV?$vector@U?$pair@W4BODY_18_PARTS@sl@@W412@@std@@V?$allocator@U?$pair@W4BODY_18_PARTS@sl@@W412@@std@@@2@@std@@V?$Vector2@M@1@AEAVMat@cv@@AEAV?$Rect_@H@6@V?$Scalar_@N@6@@Z
	??$createSKPrimitive@W4BODY_34_PARTS@sl@@@@YAXAEAVBodyData@sl@@AEBV?$vector@U?$pair@W4BODY_34_PARTS@sl@@W412@@std@@V?$allocator@U?$pair@W4BODY_34_PARTS@sl@@W412@@std@@@2@@std@@AEAVSimple3DObjectBodyTracking@@V?$Vector4@M@1@@Z
	??$createSKPrimitive@W4BODY_34_PARTS@sl@@@@YAXAEAVBodyData@sl@@AEBV?$vector@U?$pair@W4BODY_34_PARTS@sl@@W412@@std@@V?$allocator@U?$pair@W4BODY_34_PARTS@sl@@W412@@std@@@2@@std@@V?$Vector2@M@1@AEAVMat@cv@@AEAV?$Rect_@H@6@V?$Scalar_@N@6@@Z
	??$createSKPrimitive@W4BODY_38_PARTS@sl@@@@YAXAEAVBodyData@sl@@AEBV?$vector@U?$pair@W4BODY_38_PARTS@sl@@W412@@std@@V?$allocator@U?$pair@W4BODY_38_PARTS@sl@@W412@@std@@@2@@std@@AEAVSimple3DObjectBodyTracking@@V?$Vector4@M@1@@Z
	??$createSKPrimitive@W4BODY_38_PARTS@sl@@@@YAXAEAVBodyData@sl@@AEBV?$vector@U?$pair@W4BODY_38_PARTS@sl@@W412@@std@@V?$allocator@U?$pair@W4BODY_38_PARTS@sl@@W412@@std@@@2@@std@@V?$Vector2@M@1@AEAVMat@cv@@AEAV?$Rect_@H@6@V?$Scalar_@N@6@@Z
	??$endl@DU?$char_traits@D@std@@@std@@YAAEAV?$basic_ostream@DU?$char_traits@D@std@@@0@AEAV10@@Z
	??$fill@PEAV?$_List_unchecked_const_iterator@V?$_List_val@U?$_List_simple_types@W4MODULE@sl@@@std@@@std@@U_Iterator_base0@2@@std@@V12@@std@@YAXQEAV?$_List_unchecked_const_iterator@V?$_List_val@U?$_List_simple_types@W4MODULE@sl@@@std@@@std@@U_Iterator_base0@2@@0@0AEBV10@@Z
	??$sleep_for@_JU?$ratio@$00$0DOI@@std@@@this_thread@std@@YAXAEBV?$duration@_JU?$ratio@$00$0DOI@@std@@@chrono@1@@Z
	??$sleep_until@Usteady_clock@chrono@std@@V?$duration@_JU?$ratio@$00$0DLJKMKAA@@std@@@23@@this_thread@std@@YAXAEBV?$time_point@Usteady_clock@chrono@std@@V?$duration@_JU?$ratio@$00$0DLJKMKAA@@std@@@23@@chrono@1@@Z
	??$uninitialized_fill@PEAV?$_List_unchecked_const_iterator@V?$_List_val@U?$_List_simple_types@W4MODULE@sl@@@std@@@std@@U_Iterator_base0@2@@std@@V12@@std@@YAXQEAV?$_List_unchecked_const_iterator@V?$_List_val@U?$_List_simple_types@W4MODULE@sl@@@std@@@std@@U_Iterator_base0@2@@0@0AEBV10@@Z
	??0?$basic_string@DU?$char_traits@D@std@@V?$allocator@D@2@@std@@QEAA@U_String_constructor_concat_tag@1@AEAV01@1@Z
	??0?$unordered_set@W4MODULE@sl@@U?$hash@W4MODULE@sl@@@std@@U?$equal_to@W4MODULE@sl@@@4@V?$allocator@W4MODULE@sl@@@4@@std@@QEAA@V?$initializer_list@W4MODULE@sl@@@1@@Z
	??0?$vector@V?$Vector3@M@sl@@V?$allocator@V?$Vector3@M@sl@@@std@@@std@@QEAA@AEBV01@@Z
	??0CalibrationParameters@sl@@QEAA@$$QEAU01@@Z
	??0CameraGLBodyTracking@@QEAA@VTranslation@sl@@00@Z
	??0CameraGLPositionalTracking@@QEAA@XZ
	??0GLViewerBodyTracking@@QEAA@XZ
	??0GLViewerPositionalTracking@@QEAA@XZ
	??0Model3D_ZED_M@@QEAA@XZ
	??0ShaderBodyTracking@@QEAA@PEBD0@Z
	??0ShaderPositionalTracking@@QEAA@PEBD0@Z
	??0Simple3DObjectBodyTracking@@QEAA@VTranslation@sl@@_N@Z
	??0Simple3DObjectBodyTracking@@QEAA@XZ
	??0Simple3DObjectPositionalTracking@@QEAA@VTranslation@sl@@_N@Z
	??0Simple3DObjectPositionalTracking@@QEAA@XZ
	??0bad_alloc@std@@QEAA@AEBV01@@Z
	??0bad_array_new_length@std@@QEAA@AEBV01@@Z
	??0bad_array_new_length@std@@QEAA@XZ
	??0exception@std@@QEAA@AEBV01@@Z
	??1?$_Alloc_construct_ptr@V?$allocator@U?$_List_node@W4MODULE@sl@@PEAX@std@@@std@@@std@@QEAA@XZ
	??1?$_Hash@V?$_Uset_traits@W4MODULE@sl@@V?$_Uhash_compare@W4MODULE@sl@@U?$hash@W4MODULE@sl@@@std@@U?$equal_to@W4MODULE@sl@@@4@@std@@V?$allocator@W4MODULE@sl@@@4@$0A@@std@@@std@@QEAA@XZ
	??1?$_Hash_vec@V?$allocator@V?$_List_unchecked_const_iterator@V?$_List_val@U?$_List_simple_types@W4MODULE@sl@@@std@@@std@@U_Iterator_base0@2@@std@@@std@@@std@@QEAA@XZ
	??1?$_List_node_emplace_op2@V?$allocator@U?$_List_node@W4MODULE@sl@@PEAX@std@@@std@@@std@@QEAA@XZ
	??1?$_Tidy_guard@V?$vector@V?$vector@V?$Vector3@M@sl@@V?$allocator@V?$Vector3@M@sl@@@std@@@std@@V?$allocator@V?$vector@V?$Vector3@M@sl@@V?$allocator@V?$Vector3@M@sl@@@std@@@std@@@2@@std@@@std@@QEAA@XZ
	??1?$_Uninitialized_backout_al@V?$allocator@V?$vector@V?$Vector3@M@sl@@V?$allocator@V?$Vector3@M@sl@@@std@@@std@@@std@@@std@@QEAA@XZ
	??1?$basic_string@DU?$char_traits@D@std@@V?$allocator@D@2@@std@@QEAA@XZ
	??1?$basic_stringbuf@DU?$char_traits@D@std@@V?$allocator@D@2@@std@@UEAA@XZ
	??1?$basic_stringstream@DU?$char_traits@D@std@@V?$allocator@D@2@@std@@UEAA@XZ
	??1?$list@W4MODULE@sl@@V?$allocator@W4MODULE@sl@@@std@@@std@@QEAA@XZ
	??1?$vector@IV?$allocator@I@std@@@std@@QEAA@XZ
	??1?$vector@MV?$allocator@M@std@@@std@@QEAA@XZ
	??1?$vector@UModelPart@@V?$allocator@UModelPart@@@std@@@std@@QEAA@XZ
	??1?$vector@V?$Vector3@M@sl@@V?$allocator@V?$Vector3@M@sl@@@std@@@std@@QEAA@XZ
	??1?$vector@V?$vector@V?$Vector3@M@sl@@V?$allocator@V?$Vector3@M@sl@@@std@@@std@@V?$allocator@V?$vector@V?$Vector3@M@sl@@V?$allocator@V?$Vector3@M@sl@@@std@@@std@@@2@@std@@QEAA@XZ
	??1?$vector@VBodyData@sl@@V?$allocator@VBodyData@sl@@@std@@@std@@QEAA@XZ
	??1Bodies@sl@@QEAA@XZ
	??1CalibrationParameters@sl@@QEAA@XZ
	??1CameraConfiguration@sl@@QEAA@XZ
	??1CameraGLBodyTracking@@QEAA@XZ
	??1CameraGLPositionalTracking@@QEAA@XZ
	??1CameraInformation@sl@@QEAA@XZ
	??1CoordinateDataStorage@@QEAA@XZ
	??1GLViewerBodyTracking@@QEAA@XZ
	??1GLViewerPositionalTracking@@QEAA@XZ
	??1InputType@sl@@QEAA@XZ
	??1Mat@cv@@QEAA@XZ
	??1Matrix4f@sl@@QEAA@XZ
	??1Model3D@@QEAA@XZ
	??1Rotation@sl@@QEAA@XZ
	??1ShaderBodyTracking@@QEAA@XZ
	??1ShaderDataBodyTracking@@QEAA@XZ
	??1ShaderPositionalTracking@@QEAA@XZ
	??1Simple3DObjectBodyTracking@@QEAA@XZ
	??1Simple3DObjectPositionalTracking@@QEAA@XZ
	??1String@cv@@QEAA@XZ
	??1Transform@sl@@QEAA@XZ
	??1_Sentry_base@?$basic_ostream@DU?$char_traits@D@std@@@std@@QEAA@XZ
	??1bad_array_new_length@std@@UEAA@XZ
	??1exception@std@@UEAA@XZ
	??1sentry@?$basic_ostream@DU?$char_traits@D@std@@@std@@QEAA@XZ
	??4?$basic_string@DU?$char_traits@D@std@@V?$allocator@D@2@@std@@QEAAAEAV01@AEBV01@@Z
	??4Simple3DObjectBodyTracking@@QEAAAEAV0@AEBV0@@Z
	??4Transform@sl@@QEAAAEAV01@AEBV01@@Z
	??_7?$basic_stringbuf@DU?$char_traits@D@std@@V?$allocator@D@2@@std@@6B@
	??_7?$basic_stringstream@DU?$char_traits@D@std@@V?$allocator@D@2@@std@@6B@
	??_7bad_alloc@std@@6B@
	??_7bad_array_new_length@std@@6B@
	??_7exception@std@@6B@
	??_D?$basic_stringstream@DU?$char_traits@D@std@@V?$allocator@D@2@@std@@QEAAXXZ
	?BodyTracking@@YAHHPEAPEAD@Z
	?CloseFunc@@YAXXZ
	?CloseFuncPositionalTracking@@YAXXZ
	?GiveCollectedData@CoordinateDataStorage@@QEAA?AV?$vector@V?$vector@V?$Vector3@M@sl@@V?$allocator@V?$Vector3@M@sl@@@std@@@std@@V?$allocator@V?$vector@V?$Vector3@M@sl@@V?$allocator@V?$Vector3@M@sl@@@std@@@std@@@2@@std@@XZ
	?NotifyNewCoordinateData@@YAXUCoordinate@@@Z
	?NotifyPosition@@YAXUPoseSimple@@@Z
	?PositionalTracking@@YAHHPEAPEADPEAD_N@Z
	?PrintCoordinateData@CoordinateDataStorage@@QEAAXXZ
	?SafeCoordinate@CoordinateDataStorage@@QEAAHV?$vector@V?$Vector3@M@sl@@V?$allocator@V?$Vector3@M@sl@@@std@@@std@@@Z
	?_Assign_grow@?$_Hash_vec@V?$allocator@V?$_List_unchecked_const_iterator@V?$_List_val@U?$_List_simple_types@W4MODULE@sl@@@std@@@std@@U_Iterator_base0@2@@std@@@std@@@std@@QEAAX_KV?$_List_unchecked_const_iterator@V?$_List_val@U?$_List_simple_types@W4MODULE@sl@@@std@@@std@@U_Iterator_base0@2@@2@@Z
	?_Change_array@?$vector@MV?$allocator@M@std@@@std@@AEAAXQEAM_K1@Z
	?_Forced_rehash@?$_Hash@V?$_Uset_traits@W4MODULE@sl@@V?$_Uhash_compare@W4MODULE@sl@@U?$hash@W4MODULE@sl@@@std@@U?$equal_to@W4MODULE@sl@@@4@@std@@V?$allocator@W4MODULE@sl@@@4@$0A@@std@@@std@@IEAAX_K@Z
	?_Maklocwcs@std@@YAPEA_WPEB_W@Z
	?_Throw_bad_array_new_length@std@@YAXXZ
	?_Tidy@?$vector@V?$Vector3@M@sl@@V?$allocator@V?$Vector3@M@sl@@@std@@@std@@AEAAXXZ
	?_Tidy@?$vector@V?$vector@V?$Vector3@M@sl@@V?$allocator@V?$Vector3@M@sl@@@std@@@std@@V?$allocator@V?$vector@V?$Vector3@M@sl@@V?$allocator@V?$Vector3@M@sl@@@std@@@std@@@2@@std@@AEAAXXZ
	?_Xlen_string@std@@YAXXZ
	?_Xlength@?$vector@IV?$allocator@I@std@@@std@@CAXXZ
	?_Xlength@?$vector@MV?$allocator@M@std@@@std@@CAXXZ
	?_Xlength@?$vector@UModelPart@@V?$allocator@UModelPart@@@std@@@std@@CAXXZ
	?_Xlength@?$vector@V?$Vector3@M@sl@@V?$allocator@V?$Vector3@M@sl@@@std@@@std@@CAXXZ
	?_Xlength@?$vector@V?$vector@V?$Vector3@M@sl@@V?$allocator@V?$Vector3@M@sl@@@std@@@std@@V?$allocator@V?$vector@V?$Vector3@M@sl@@V?$allocator@V?$Vector3@M@sl@@@std@@@std@@@2@@std@@CAXXZ
	?_Xrange@?$vector@V?$Vector3@M@sl@@V?$allocator@V?$Vector3@M@sl@@@std@@@std@@CAXXZ
	?addBoundingBox@Simple3DObjectBodyTracking@@QEAAXV?$vector@V?$Vector3@M@sl@@V?$allocator@V?$Vector3@M@sl@@@std@@@std@@V?$Vector4@M@sl@@@Z
	?addClr@Simple3DObjectBodyTracking@@QEAAXV?$Vector4@M@sl@@@Z
	?addCylinder@Simple3DObjectBodyTracking@@QEAAXV?$Vector3@M@sl@@0V?$Vector4@M@3@@Z
	?addLine@Simple3DObjectBodyTracking@@QEAAXV?$Vector3@M@sl@@00@Z
	?addLine@Simple3DObjectPositionalTracking@@QEAAXV?$Vector3@M@sl@@00@Z
	?addNormal@Simple3DObjectBodyTracking@@QEAAXV?$Vector3@M@sl@@@Z
	?addPoint@Simple3DObjectBodyTracking@@QEAAXV?$Vector3@M@sl@@V?$Vector4@M@3@@Z
	?addPoint@Simple3DObjectPositionalTracking@@QEAAXMMMMMM@Z
	?addPoint@Simple3DObjectPositionalTracking@@QEAAXV?$Vector3@M@sl@@0@Z
	?addPoints@Simple3DObjectBodyTracking@@QEAAXV?$vector@V?$Vector3@M@sl@@V?$allocator@V?$Vector3@M@sl@@@std@@@std@@V?$Vector4@M@sl@@@Z
	?addPt@Simple3DObjectBodyTracking@@QEAAXV?$Vector3@M@sl@@@Z
	?addSphere@Simple3DObjectBodyTracking@@QEAAXV?$Vector3@M@sl@@V?$Vector4@M@3@M@Z
	?addVert@@YAXAEAVSimple3DObjectBodyTracking@@MMMAEAV?$Vector4@M@sl@@@Z
	?addVert@@YAXAEAVSimple3DObjectPositionalTracking@@MMAEAV?$Vector3@M@sl@@@Z
	?assign@?$basic_string@DU?$char_traits@D@std@@V?$allocator@D@2@@std@@QEAAAEAV12@QEBD_K@Z
	?clear@?$_Hash@V?$_Uset_traits@W4MODULE@sl@@V?$_Uhash_compare@W4MODULE@sl@@U?$hash@W4MODULE@sl@@@std@@U?$equal_to@W4MODULE@sl@@@4@@std@@V?$allocator@W4MODULE@sl@@@4@$0A@@std@@@std@@QEAAXXZ
	?clear@Simple3DObjectBodyTracking@@QEAAXXZ
	?clear@Simple3DObjectPositionalTracking@@QEAAXXZ
	?clearInputs@GLViewerBodyTracking@@AEAAXXZ
	?clearInputs@GLViewerPositionalTracking@@AEAAXXZ
	?compile@ShaderBodyTracking@@AEAA_NAEAIIPEBD@Z
	?compile@ShaderPositionalTracking@@AEAA_NAEAIIPEBD@Z
	?createSKPrimitivePtOnly@@YAXAEAVBodyData@sl@@HHAEAVSimple3DObjectBodyTracking@@V?$Vector4@M@2@@Z
	?deallocate@?$allocator@D@std@@QEAAXQEAD_K@Z
	?deallocate@?$allocator@I@std@@QEAAXQEAI_K@Z
	?deallocate@?$allocator@M@std@@QEAAXQEAM_K@Z
	?deallocate@?$allocator@UModelPart@@@std@@QEAAXQEAUModelPart@@_K@Z
	?deallocate@?$allocator@V?$Vector3@M@sl@@@std@@QEAAXQEAV?$Vector3@M@sl@@_K@Z
	?deallocate@?$allocator@V?$vector@V?$Vector3@M@sl@@V?$allocator@V?$Vector3@M@sl@@@std@@@std@@@std@@QEAAXQEAV?$vector@V?$Vector3@M@sl@@V?$allocator@V?$Vector3@M@sl@@@std@@@2@_K@Z
	?draw@GLViewerBodyTracking@@AEAAXXZ
	?draw@GLViewerPositionalTracking@@AEAAXXZ
	?draw@Simple3DObjectBodyTracking@@QEAAXXZ
	?draw@Simple3DObjectPositionalTracking@@QEAAXXZ
	?drawCallback@GLViewerBodyTracking@@CAXXZ
	?drawCallback@GLViewerPositionalTracking@@CAXXZ
	?exit@GLViewerBodyTracking@@QEAAXXZ
	?exit@GLViewerPositionalTracking@@QEAAXXZ
	?fillZED@@YAXHPEAMPEAHV?$Vector3@M@sl@@PEAVSimple3DObjectPositionalTracking@@@Z
	?findImageExtension@@YAHHPEAPEAD@Z
	?fixed@std@@YAAEAVios_base@1@AEAV21@@Z
	?getForward@CameraGLBodyTracking@@QEBAAEBVTranslation@sl@@XZ
	?getForward@CameraGLPositionalTracking@@QEBAAEBVTranslation@sl@@XZ
	?getHorizontalFOV@CameraGLBodyTracking@@QEBAMXZ
	?getModelMatrix@Simple3DObjectBodyTracking@@QEBA?AVTransform@sl@@XZ
	?getModelMatrix@Simple3DObjectPositionalTracking@@QEBA?AVTransform@sl@@XZ
	?getOffsetFromPosition@CameraGLBodyTracking@@QEBAAEBVTranslation@sl@@XZ
	?getPosition@CameraGLBodyTracking@@QEBAAEBVTranslation@sl@@XZ
	?getPosition@Simple3DObjectBodyTracking@@QEBAAEBVTranslation@sl@@XZ
	?getPosition@Simple3DObjectPositionalTracking@@QEBAAEBVTranslation@sl@@XZ
	?getProgramId@ShaderBodyTracking@@QEAAIXZ
	?getProgramId@ShaderPositionalTracking@@QEAAIXZ
	?getRight@CameraGLBodyTracking@@QEBAAEBVTranslation@sl@@XZ
	?getRight@CameraGLPositionalTracking@@QEBAAEBVTranslation@sl@@XZ
	?getUp@CameraGLBodyTracking@@QEBAAEBVTranslation@sl@@XZ
	?getUp@CameraGLPositionalTracking@@QEBAAEBVTranslation@sl@@XZ
	?getVertical@CameraGLBodyTracking@@QEBAAEBVTranslation@sl@@XZ
	?getVertical@CameraGLPositionalTracking@@QEBAAEBVTranslation@sl@@XZ
	?getVerticalFOV@CameraGLBodyTracking@@QEBAMXZ
	?getViewProjectionMatrix@CameraGLBodyTracking@@QEBAAEBVTransform@sl@@XZ
	?getViewProjectionMatrix@CameraGLPositionalTracking@@QEBAAEBVTransform@sl@@XZ
	?getZFar@CameraGLBodyTracking@@QEBAMXZ
	?getZNear@CameraGLBodyTracking@@QEBAMXZ
	?idle@GLViewerBodyTracking@@CAXXZ
	?idle@GLViewerPositionalTracking@@CAXXZ
	?init@GLViewerBodyTracking@@QEAAXHPEAPEAD@Z
	?init@GLViewerPositionalTracking@@QEAAXHPEAPEADW4MODEL@sl@@@Z
	?isAvailable@GLViewerBodyTracking@@QEAA_NXZ
	?isAvailable@GLViewerPositionalTracking@@QEAA_NXZ
	?keyPressedCallback@GLViewerBodyTracking@@CAXEHH@Z
	?keyPressedCallback@GLViewerPositionalTracking@@CAXEHH@Z
	?keyReleasedCallback@GLViewerBodyTracking@@CAXEHH@Z
	?keyReleasedCallback@GLViewerPositionalTracking@@CAXEHH@Z
	?lock@_Mutex_base@std@@QEAAXXZ
	?mouseButtonCallback@GLViewerBodyTracking@@CAXHHHH@Z
	?mouseButtonCallback@GLViewerPositionalTracking@@CAXHHHH@Z
	?mouseMotionCallback@GLViewerBodyTracking@@CAXHH@Z
	?mouseMotionCallback@GLViewerPositionalTracking@@CAXHH@Z
	?now@steady_clock@chrono@std@@SA?AV?$time_point@Usteady_clock@chrono@std@@V?$duration@_JU?$ratio@$00$0DLJKMKAA@@std@@@23@@23@XZ
	?overflow@?$basic_stringbuf@DU?$char_traits@D@std@@V?$allocator@D@2@@std@@MEAAHH@Z
	?parseArgs@@YA?AV?$basic_string@DU?$char_traits@D@std@@V?$allocator@D@2@@std@@HPEAPEADAEAUInitParameters@sl@@@Z
	?parseArgs@@YAXHPEAPEADAEAUInitParameters@sl@@@Z
	?pbackfail@?$basic_stringbuf@DU?$char_traits@D@std@@V?$allocator@D@2@@std@@MEAAHH@Z
	?print@@YAXV?$basic_string@DU?$char_traits@D@std@@V?$allocator@D@2@@std@@W4ERROR_CODE@sl@@0@Z
	?printPositionalTracking@@YAXV?$basic_string@DU?$char_traits@D@std@@V?$allocator@D@2@@std@@W4ERROR_CODE@sl@@0@Z
	?printText@GLViewerPositionalTracking@@AEAAXXZ
	?pushToGPU@Simple3DObjectBodyTracking@@QEAAXXZ
	?pushToGPU@Simple3DObjectPositionalTracking@@QEAAXXZ
	?release@Mat@cv@@QEAAXXZ
	?render@GLViewerBodyTracking@@AEAAXXZ
	?render@GLViewerPositionalTracking@@AEAAXXZ
	?render_2D@@YAXAEAVMat@cv@@V?$Vector2@M@sl@@AEAV?$vector@VBodyData@sl@@V?$allocator@VBodyData@sl@@@std@@@std@@_N3@Z
	?reshapeCallback@GLViewerBodyTracking@@CAXHH@Z
	?reshapeCallback@GLViewerPositionalTracking@@CAXHH@Z
	?rotate@CameraGLBodyTracking@@QEAAXAEBVOrientation@sl@@@Z
	?rotate@CameraGLBodyTracking@@QEAAXAEBVRotation@sl@@@Z
	?rotate@CameraGLPositionalTracking@@QEAAXAEBVRotation@sl@@@Z
	?rotate@Simple3DObjectBodyTracking@@QEAAXAEBVOrientation@sl@@@Z
	?rotate@Simple3DObjectBodyTracking@@QEAAXAEBVRotation@sl@@@Z
	?rotate@Simple3DObjectPositionalTracking@@QEAAXAEBVOrientation@sl@@@Z
	?rotate@Simple3DObjectPositionalTracking@@QEAAXAEBVRotation@sl@@@Z
	?seekoff@?$basic_stringbuf@DU?$char_traits@D@std@@V?$allocator@D@2@@std@@MEAA?AV?$fpos@U_Mbstatet@@@2@_JHH@Z
	?seekpos@?$basic_stringbuf@DU?$char_traits@D@std@@V?$allocator@D@2@@std@@MEAA?AV?$fpos@U_Mbstatet@@@2@V32@H@Z
	?set@ShaderBodyTracking@@QEAAXPEBD0@Z
	?set@ShaderPositionalTracking@@QEAAXPEBD0@Z
	?setDirection@CameraGLBodyTracking@@QEAAXAEBVTranslation@sl@@0@Z
	?setDirection@CameraGLPositionalTracking@@QEAAXAEBVTranslation@sl@@0@Z
	?setDrawingType@Simple3DObjectBodyTracking@@QEAAXI@Z
	?setDrawingType@Simple3DObjectPositionalTracking@@QEAAXI@Z
	?setOffsetFromPosition@CameraGLBodyTracking@@QEAAXAEBVTranslation@sl@@@Z
	?setPosition@CameraGLBodyTracking@@QEAAXAEBVTranslation@sl@@@Z
	?setPosition@CameraGLPositionalTracking@@QEAAXAEBVTranslation@sl@@@Z
	?setPosition@Simple3DObjectBodyTracking@@QEAAXAEBVTranslation@sl@@@Z
	?setPosition@Simple3DObjectPositionalTracking@@QEAAXAEBVTranslation@sl@@@Z
	?setProjection@CameraGLBodyTracking@@QEAAXMMMM@Z
	?setProjection@CameraGLPositionalTracking@@QEAAXM@Z
	?setRT@Simple3DObjectBodyTracking@@QEAAXAEBVTransform@sl@@@Z
	?setRT@Simple3DObjectPositionalTracking@@QEAAXAEBVTransform@sl@@@Z
	?setRotation@CameraGLBodyTracking@@QEAAXAEBVOrientation@sl@@@Z
	?setRotation@CameraGLBodyTracking@@QEAAXAEBVRotation@sl@@@Z
	?setRotation@CameraGLPositionalTracking@@QEAAXAEBVRotation@sl@@@Z
	?setRotation@Simple3DObjectBodyTracking@@QEAAXAEBVOrientation@sl@@@Z
	?setRotation@Simple3DObjectBodyTracking@@QEAAXAEBVRotation@sl@@@Z
	?setRotation@Simple3DObjectPositionalTracking@@QEAAXAEBVOrientation@sl@@@Z
	?setRotation@Simple3DObjectPositionalTracking@@QEAAXAEBVRotation@sl@@@Z
	?setTxt@@YA?AV?$basic_string@DU?$char_traits@D@std@@V?$allocator@D@2@@std@@V?$Vector3@M@sl@@@Z
	?test@CoordinateDataStorage@@QEAAXXZ
	?translate@CameraGLBodyTracking@@QEAAXAEBVTranslation@sl@@@Z
	?translate@CameraGLPositionalTracking@@QEAAXAEBVTranslation@sl@@@Z
	?translate@Simple3DObjectBodyTracking@@QEAAXAEBVTranslation@sl@@@Z
	?translate@Simple3DObjectPositionalTracking@@QEAAXAEBVTranslation@sl@@@Z
	?underflow@?$basic_stringbuf@DU?$char_traits@D@std@@V?$allocator@D@2@@std@@MEAAHXZ
	?update@CameraGLBodyTracking@@QEAAXXZ
	?update@CameraGLPositionalTracking@@QEAAXXZ
	?update@GLViewerBodyTracking@@AEAAXXZ
	?update@GLViewerPositionalTracking@@AEAAXXZ
	?updateData@GLViewerBodyTracking@@QEAAXAEAVBodies@sl@@AEAVTransform@3@@Z
	?updateData@GLViewerPositionalTracking@@QEAAXVTransform@sl@@V?$basic_string@DU?$char_traits@D@std@@V?$allocator@D@2@@std@@1VPositionalTrackingStatus@3@@Z
	?updateVPMatrix@CameraGLBodyTracking@@AEAAXXZ
	?updateVectors@CameraGLBodyTracking@@AEAAXXZ
	?updateVectors@CameraGLPositionalTracking@@AEAAXXZ
	?updateView@CameraGLBodyTracking@@AEAAXXZ
	?what@exception@std@@UEBAPEBDXZ
	RegisterCoordinateCallback
	RegisterPositionCallback
	StartBodyTracking
	StartPositionalTracking
	StopBodyTracking
	TestDll
	UpdateConfigParameters
	__local_stdio_scanf_options
	main
	sscanf
